(dp1
S'count'
p2
(lp3
I1
asS'bests'
p4
(lp5
I32
asS'goals'
p6
(lp7
ccopy_reg
_reconstructor
p8
(cpddlsim.parser_independent
Conjunction
p9
c__builtin__
object
p10
NtRp11
(dp12
S'parts'
p13
(lp14
g8
(cpddlsim.parser_independent
Literal
p15
g10
NtRp16
(dp17
S'predicate'
p18
S'have_image'
p19
sS'args'
p20
(S'phenomenon5'
S'thermograph1'
tp21
sbag8
(g15
g10
NtRp22
(dp23
g18
S'have_image'
p24
sg20
(S'star6'
S'thermograph1'
tp25
sbag8
(g15
g10
NtRp26
(dp27
g18
S'have_image'
p28
sg20
(S'star7'
S'spectrograph3'
tp29
sbag8
(g15
g10
NtRp30
(dp31
g18
S'have_image'
p32
sg20
(S'phenomenon8'
S'image0'
tp33
sbag8
(g15
g10
NtRp34
(dp35
g18
S'have_image'
p36
sg20
(S'phenomenon9'
S'image0'
tp37
sbag8
(g15
g10
NtRp38
(dp39
g18
S'have_image'
p40
sg20
(S'star10'
S'spectrograph3'
tp41
sbag8
(g15
g10
NtRp42
(dp43
g18
S'have_image'
p44
sg20
(S'planet11'
S'thermograph2'
tp45
sbag8
(g15
g10
NtRp46
(dp47
g18
S'have_image'
p48
sg20
(S'phenomenon12'
S'image0'
tp49
sbag8
(g15
g10
NtRp50
(dp51
g18
S'have_image'
p52
sg20
(S'phenomenon13'
S'thermograph1'
tp53
sbag8
(g15
g10
NtRp54
(dp55
g18
S'have_image'
p56
sg20
(S'phenomenon14'
S'thermograph2'
tp57
sbasbasS'planning_success'
p58
(lp59
I01
as.